; Function Attrs: nounwind uwtable
define ptr @l___private_Std_Sync_Channel_0__Std_CloseableChannel_Zero_tryRecv_x27___rarg___lambda__1(ptr noundef %0, ptr noundef %1, ptr noundef %2, ptr noundef %3, ptr noundef %4, ptr readnone captures(none) %5) local_unnamed_addr #1 {
  tail call void @lean_inc_heartbeat() #7
  %7 = tail call noalias ptr @mi_malloc_small(i64 noundef 48) #7
  %8 = icmp eq ptr %7, null
  br i1 %8, label %9, label %lean_alloc_closure.exit

9:                                                ; preds = %6
  tail call void @lean_internal_panic_out_of_memory() #8
  unreachable

lean_alloc_closure.exit:                          ; preds = %6
  %10 = getelementptr inbounds nuw i8, ptr %7, i64 4
  store i32 1, ptr %7, align 4, !tbaa !4
  store i32 -184549328, ptr %10, align 4
  %11 = getelementptr inbounds nuw i8, ptr %7, i64 8
  store ptr @l_IO_Promise_resolve___boxed, ptr %11, align 8, !tbaa !10
  %12 = getelementptr inbounds nuw i8, ptr %7, i64 16
  store i16 4, ptr %12, align 8, !tbaa !12
  %13 = getelementptr inbounds nuw i8, ptr %7, i64 18
  store i16 3, ptr %13, align 2, !tbaa !12
  %14 = getelementptr inbounds nuw i8, ptr %7, i64 24
  store ptr inttoptr (i64 1 to ptr), ptr %14, align 8, !tbaa !10
  %15 = getelementptr inbounds nuw i8, ptr %7, i64 32
  store ptr inttoptr (i64 3 to ptr), ptr %15, align 8, !tbaa !10
  %16 = getelementptr inbounds nuw i8, ptr %7, i64 40
  store ptr %0, ptr %16, align 8, !tbaa !10
  %17 = tail call ptr @lean_apply_2(ptr noundef %1, ptr noundef nonnull inttoptr (i64 1 to ptr), ptr noundef nonnull %7) #7
  tail call void @lean_inc_heartbeat() #7
  %18 = tail call noalias ptr @mi_malloc_small(i64 noundef 40) #7
  %19 = icmp eq ptr %18, null
  br i1 %19, label %20, label %lean_alloc_closure.exit15

20:                                               ; preds = %lean_alloc_closure.exit
  tail call void @lean_internal_panic_out_of_memory() #8
  unreachable

lean_alloc_closure.exit15:                        ; preds = %lean_alloc_closure.exit
  %21 = getelementptr inbounds nuw i8, ptr %18, i64 4
  store i32 1, ptr %18, align 4, !tbaa !4
  store i32 -184549336, ptr %21, align 4
  %22 = getelementptr inbounds nuw i8, ptr %18, i64 8
  store ptr @l___private_Std_Sync_Channel_0__Std_CloseableChannel_Unbounded_tryRecv_x27___rarg___lambda__1___boxed, ptr %22, align 8, !tbaa !10
  %23 = getelementptr inbounds nuw i8, ptr %18, i64 16
  store i16 3, ptr %23, align 8, !tbaa !12
  %24 = getelementptr inbounds nuw i8, ptr %18, i64 18
  store i16 2, ptr %24, align 2, !tbaa !12
  %25 = getelementptr inbounds nuw i8, ptr %18, i64 24
  store ptr %2, ptr %25, align 8, !tbaa !10
  %26 = getelementptr inbounds nuw i8, ptr %18, i64 32
  store ptr %3, ptr %26, align 8, !tbaa !10
  %27 = tail call ptr @lean_apply_4(ptr noundef %4, ptr noundef nonnull inttoptr (i64 1 to ptr), ptr noundef nonnull inttoptr (i64 1 to ptr), ptr noundef %17, ptr noundef nonnull %18) #7
  ret ptr %27
}